target datalayout = "e-m:e-p270:32:32-p271:32:32-p272:64:64-i64:64-i128:128-f80:128-n8:16:32:64-S128"
target triple = "x86_64-pc-linux-gnu"

%"class.pxrInternal_v0_24__pxrReserved__::GfMatrix4f" = type { %"class.pxrInternal_v0_24__pxrReserved__::GfMatrixData" }
%"class.pxrInternal_v0_24__pxrReserved__::GfMatrixData" = type { [16 x float] }
%"class.pxrInternal_v0_24__pxrReserved__::GfMatrix3f" = type { %"class.pxrInternal_v0_24__pxrReserved__::GfMatrixData.16" }
%"class.pxrInternal_v0_24__pxrReserved__::GfMatrixData.16" = type { [9 x float] }

; Function Attrs: mustprogress nounwind uwtable
define linkonce_odr noundef ptr @_ZNK32pxrInternal_v0_24__pxrReserved__12GfMatrixDataIfLi3ELi3EEixEi(ptr noundef nonnull align 4 dereferenceable(36) %0, i32 noundef %1) #2 comdat align 2 {
  %3 = alloca ptr, align 8
  %4 = alloca i32, align 4
  store ptr %0, ptr %3, align 8
  store i32 %1, ptr %4, align 4
  %5 = load ptr, ptr %3, align 8
  %6 = getelementptr inbounds nuw %"class.pxrInternal_v0_24__pxrReserved__::GfMatrixData.16", ptr %5, i32 0, i32 0
  %7 = getelementptr inbounds [9 x float], ptr %6, i64 0, i64 0
  %8 = load i32, ptr %4, align 4
  %9 = mul nsw i32 %8, 3
  %10 = sext i32 %9 to i64
  %11 = getelementptr inbounds float, ptr %7, i64 %10
  ret ptr %11
}

; Function Attrs: mustprogress nounwind uwtable
define linkonce_odr noundef ptr @_ZN32pxrInternal_v0_24__pxrReserved__12GfMatrixDataIfLi4ELi4EEixEi(ptr noundef nonnull align 4 dereferenceable(64) %0, i32 noundef %1) #2 comdat align 2 {
  %3 = alloca ptr, align 8
  %4 = alloca i32, align 4
  store ptr %0, ptr %3, align 8
  store i32 %1, ptr %4, align 4
  %5 = load ptr, ptr %3, align 8
  %6 = getelementptr inbounds nuw %"class.pxrInternal_v0_24__pxrReserved__::GfMatrixData", ptr %5, i32 0, i32 0
  %7 = getelementptr inbounds [16 x float], ptr %6, i64 0, i64 0
  %8 = load i32, ptr %4, align 4
  %9 = mul nsw i32 %8, 4
  %10 = sext i32 %9 to i64
  %11 = getelementptr inbounds float, ptr %7, i64 %10
  ret ptr %11
}

; Function Attrs: mustprogress uwtable
define linkonce_odr noundef ptr @_ZNK32pxrInternal_v0_24__pxrReserved__10GfMatrix3fixEi(ptr noundef nonnull align 4 dereferenceable(36) %0, i32 noundef %1) #0 comdat align 2 {
  %3 = alloca ptr, align 8
  %4 = alloca i32, align 4
  store ptr %0, ptr %3, align 8
  store i32 %1, ptr %4, align 4
  %5 = load ptr, ptr %3, align 8
  %6 = getelementptr inbounds nuw %"class.pxrInternal_v0_24__pxrReserved__::GfMatrix3f", ptr %5, i32 0, i32 0
  %7 = load i32, ptr %4, align 4
  %8 = call noundef ptr @_ZNK32pxrInternal_v0_24__pxrReserved__12GfMatrixDataIfLi3ELi3EEixEi(ptr noundef nonnull align 4 dereferenceable(36) %6, i32 noundef %7)
  ret ptr %8
}

; Function Attrs: mustprogress uwtable
define noundef nonnull align 4 dereferenceable(64) ptr @_ZN32pxrInternal_v0_24__pxrReserved__10GfMatrix4f13SetRotateOnlyERKNS_10GfMatrix3fE(ptr noundef nonnull align 4 dereferenceable(64) %0, ptr noundef nonnull align 4 dereferenceable(36) %1) #0 align 2 {
  %3 = alloca ptr, align 8
  %4 = alloca ptr, align 8
  store ptr %0, ptr %3, align 8
  store ptr %1, ptr %4, align 8
  %5 = load ptr, ptr %3, align 8
  %6 = load ptr, ptr %4, align 8
  %7 = call noundef ptr @_ZNK32pxrInternal_v0_24__pxrReserved__10GfMatrix3fixEi(ptr noundef nonnull align 4 dereferenceable(36) %6, i32 noundef 0)
  %8 = getelementptr inbounds float, ptr %7, i64 0
  %9 = load float, ptr %8, align 4
  %10 = getelementptr inbounds nuw %"class.pxrInternal_v0_24__pxrReserved__::GfMatrix4f", ptr %5, i32 0, i32 0
  %11 = call noundef ptr @_ZN32pxrInternal_v0_24__pxrReserved__12GfMatrixDataIfLi4ELi4EEixEi(ptr noundef nonnull align 4 dereferenceable(64) %10, i32 noundef 0)
  %12 = getelementptr inbounds float, ptr %11, i64 0
  store float %9, ptr %12, align 4
  %13 = load ptr, ptr %4, align 8
  %14 = call noundef ptr @_ZNK32pxrInternal_v0_24__pxrReserved__10GfMatrix3fixEi(ptr noundef nonnull align 4 dereferenceable(36) %13, i32 noundef 0)
  %15 = getelementptr inbounds float, ptr %14, i64 1
  %16 = load float, ptr %15, align 4
  %17 = getelementptr inbounds nuw %"class.pxrInternal_v0_24__pxrReserved__::GfMatrix4f", ptr %5, i32 0, i32 0
  %18 = call noundef ptr @_ZN32pxrInternal_v0_24__pxrReserved__12GfMatrixDataIfLi4ELi4EEixEi(ptr noundef nonnull align 4 dereferenceable(64) %17, i32 noundef 0)
  %19 = getelementptr inbounds float, ptr %18, i64 1
  store float %16, ptr %19, align 4
  %20 = load ptr, ptr %4, align 8
  %21 = call noundef ptr @_ZNK32pxrInternal_v0_24__pxrReserved__10GfMatrix3fixEi(ptr noundef nonnull align 4 dereferenceable(36) %20, i32 noundef 0)
  %22 = getelementptr inbounds float, ptr %21, i64 2
  %23 = load float, ptr %22, align 4
  %24 = getelementptr inbounds nuw %"class.pxrInternal_v0_24__pxrReserved__::GfMatrix4f", ptr %5, i32 0, i32 0
  %25 = call noundef ptr @_ZN32pxrInternal_v0_24__pxrReserved__12GfMatrixDataIfLi4ELi4EEixEi(ptr noundef nonnull align 4 dereferenceable(64) %24, i32 noundef 0)
  %26 = getelementptr inbounds float, ptr %25, i64 2
  store float %23, ptr %26, align 4
  %27 = load ptr, ptr %4, align 8
  %28 = call noundef ptr @_ZNK32pxrInternal_v0_24__pxrReserved__10GfMatrix3fixEi(ptr noundef nonnull align 4 dereferenceable(36) %27, i32 noundef 1)
  %29 = getelementptr inbounds float, ptr %28, i64 0
  %30 = load float, ptr %29, align 4
  %31 = getelementptr inbounds nuw %"class.pxrInternal_v0_24__pxrReserved__::GfMatrix4f", ptr %5, i32 0, i32 0
  %32 = call noundef ptr @_ZN32pxrInternal_v0_24__pxrReserved__12GfMatrixDataIfLi4ELi4EEixEi(ptr noundef nonnull align 4 dereferenceable(64) %31, i32 noundef 1)
  %33 = getelementptr inbounds float, ptr %32, i64 0
  store float %30, ptr %33, align 4
  %34 = load ptr, ptr %4, align 8
  %35 = call noundef ptr @_ZNK32pxrInternal_v0_24__pxrReserved__10GfMatrix3fixEi(ptr noundef nonnull align 4 dereferenceable(36) %34, i32 noundef 1)
  %36 = getelementptr inbounds float, ptr %35, i64 1
  %37 = load float, ptr %36, align 4
  %38 = getelementptr inbounds nuw %"class.pxrInternal_v0_24__pxrReserved__::GfMatrix4f", ptr %5, i32 0, i32 0
  %39 = call noundef ptr @_ZN32pxrInternal_v0_24__pxrReserved__12GfMatrixDataIfLi4ELi4EEixEi(ptr noundef nonnull align 4 dereferenceable(64) %38, i32 noundef 1)
  %40 = getelementptr inbounds float, ptr %39, i64 1
  store float %37, ptr %40, align 4
  %41 = load ptr, ptr %4, align 8
  %42 = call noundef ptr @_ZNK32pxrInternal_v0_24__pxrReserved__10GfMatrix3fixEi(ptr noundef nonnull align 4 dereferenceable(36) %41, i32 noundef 1)
  %43 = getelementptr inbounds float, ptr %42, i64 2
  %44 = load float, ptr %43, align 4
  %45 = getelementptr inbounds nuw %"class.pxrInternal_v0_24__pxrReserved__::GfMatrix4f", ptr %5, i32 0, i32 0
  %46 = call noundef ptr @_ZN32pxrInternal_v0_24__pxrReserved__12GfMatrixDataIfLi4ELi4EEixEi(ptr noundef nonnull align 4 dereferenceable(64) %45, i32 noundef 1)
  %47 = getelementptr inbounds float, ptr %46, i64 2
  store float %44, ptr %47, align 4
  %48 = load ptr, ptr %4, align 8
  %49 = call noundef ptr @_ZNK32pxrInternal_v0_24__pxrReserved__10GfMatrix3fixEi(ptr noundef nonnull align 4 dereferenceable(36) %48, i32 noundef 2)
  %50 = getelementptr inbounds float, ptr %49, i64 0
  %51 = load float, ptr %50, align 4
  %52 = getelementptr inbounds nuw %"class.pxrInternal_v0_24__pxrReserved__::GfMatrix4f", ptr %5, i32 0, i32 0
  %53 = call noundef ptr @_ZN32pxrInternal_v0_24__pxrReserved__12GfMatrixDataIfLi4ELi4EEixEi(ptr noundef nonnull align 4 dereferenceable(64) %52, i32 noundef 2)
  %54 = getelementptr inbounds float, ptr %53, i64 0
  store float %51, ptr %54, align 4
  %55 = load ptr, ptr %4, align 8
  %56 = call noundef ptr @_ZNK32pxrInternal_v0_24__pxrReserved__10GfMatrix3fixEi(ptr noundef nonnull align 4 dereferenceable(36) %55, i32 noundef 2)
  %57 = getelementptr inbounds float, ptr %56, i64 1
  %58 = load float, ptr %57, align 4
  %59 = getelementptr inbounds nuw %"class.pxrInternal_v0_24__pxrReserved__::GfMatrix4f", ptr %5, i32 0, i32 0
  %60 = call noundef ptr @_ZN32pxrInternal_v0_24__pxrReserved__12GfMatrixDataIfLi4ELi4EEixEi(ptr noundef nonnull align 4 dereferenceable(64) %59, i32 noundef 2)
  %61 = getelementptr inbounds float, ptr %60, i64 1
  store float %58, ptr %61, align 4
  %62 = load ptr, ptr %4, align 8
  %63 = call noundef ptr @_ZNK32pxrInternal_v0_24__pxrReserved__10GfMatrix3fixEi(ptr noundef nonnull align 4 dereferenceable(36) %62, i32 noundef 2)
  %64 = getelementptr inbounds float, ptr %63, i64 2
  %65 = load float, ptr %64, align 4
  %66 = getelementptr inbounds nuw %"class.pxrInternal_v0_24__pxrReserved__::GfMatrix4f", ptr %5, i32 0, i32 0
  %67 = call noundef ptr @_ZN32pxrInternal_v0_24__pxrReserved__12GfMatrixDataIfLi4ELi4EEixEi(ptr noundef nonnull align 4 dereferenceable(64) %66, i32 noundef 2)
  %68 = getelementptr inbounds float, ptr %67, i64 2
  store float %65, ptr %68, align 4
  ret ptr %5
}